target datalayout = "e-m:e-p270:32:32-p271:32:32-p272:64:64-i64:64-i128:128-f80:128-n8:16:32:64-S128"
target triple = "x86_64-pc-linux-gnu"

%"class.gmx::internal::AnalysisDataStorageImpl" = type <{ ptr, ptr, i32, i32, %"class.std::vector", i64, i32, [4 x i8], %"class.std::vector.0", i32, [4 x i8] }>
%"class.std::vector" = type { %"struct.std::_Vector_base" }
%"struct.std::_Vector_base" = type { %"struct.std::_Vector_base<std::unique_ptr<gmx::internal::AnalysisDataStorageFrameData>, std::allocator<std::unique_ptr<gmx::internal::AnalysisDataStorageFrameData>>>::_Vector_impl" }
%"struct.std::_Vector_base<std::unique_ptr<gmx::internal::AnalysisDataStorageFrameData>, std::allocator<std::unique_ptr<gmx::internal::AnalysisDataStorageFrameData>>>::_Vector_impl" = type { %"struct.std::_Vector_base<std::unique_ptr<gmx::internal::AnalysisDataStorageFrameData>, std::allocator<std::unique_ptr<gmx::internal::AnalysisDataStorageFrameData>>>::_Vector_impl_data" }
%"struct.std::_Vector_base<std::unique_ptr<gmx::internal::AnalysisDataStorageFrameData>, std::allocator<std::unique_ptr<gmx::internal::AnalysisDataStorageFrameData>>>::_Vector_impl_data" = type { ptr, ptr, ptr }
%"class.std::vector.0" = type { %"struct.std::_Vector_base.1" }
%"struct.std::_Vector_base.1" = type { %"struct.std::_Vector_base<std::unique_ptr<gmx::AnalysisDataStorageFrame>, std::allocator<std::unique_ptr<gmx::AnalysisDataStorageFrame>>>::_Vector_impl" }
%"struct.std::_Vector_base<std::unique_ptr<gmx::AnalysisDataStorageFrame>, std::allocator<std::unique_ptr<gmx::AnalysisDataStorageFrame>>>::_Vector_impl" = type { %"struct.std::_Vector_base<std::unique_ptr<gmx::AnalysisDataStorageFrame>, std::allocator<std::unique_ptr<gmx::AnalysisDataStorageFrame>>>::_Vector_impl_data" }
%"struct.std::_Vector_base<std::unique_ptr<gmx::AnalysisDataStorageFrame>, std::allocator<std::unique_ptr<gmx::AnalysisDataStorageFrame>>>::_Vector_impl_data" = type { ptr, ptr, ptr }
%"class.std::unique_ptr.7" = type { %"struct.std::__uniq_ptr_data.8" }
%"struct.std::__uniq_ptr_data.8" = type { %"class.std::__uniq_ptr_impl.9" }
%"class.std::__uniq_ptr_impl.9" = type { %"class.std::tuple.10" }
%"class.std::tuple.10" = type { %"struct.std::_Tuple_impl.11" }
%"struct.std::_Tuple_impl.11" = type { %"struct.std::_Head_base.14" }
%"struct.std::_Head_base.14" = type { ptr }
%"class.gmx::internal::AnalysisDataStorageFrameData" = type <{ ptr, %"class.gmx::AnalysisDataFrameHeader", [4 x i8], %"class.std::vector.15", %"class.std::vector.20", %"class.std::unique_ptr.25", i32, [4 x i8] }>
%"class.gmx::AnalysisDataFrameHeader" = type { i32, float, float }
%"class.std::vector.15" = type { %"struct.std::_Vector_base.16" }
%"struct.std::_Vector_base.16" = type { %"struct.std::_Vector_base<gmx::AnalysisDataValue, std::allocator<gmx::AnalysisDataValue>>::_Vector_impl" }
%"struct.std::_Vector_base<gmx::AnalysisDataValue, std::allocator<gmx::AnalysisDataValue>>::_Vector_impl" = type { %"struct.std::_Vector_base<gmx::AnalysisDataValue, std::allocator<gmx::AnalysisDataValue>>::_Vector_impl_data" }
%"struct.std::_Vector_base<gmx::AnalysisDataValue, std::allocator<gmx::AnalysisDataValue>>::_Vector_impl_data" = type { ptr, ptr, ptr }
%"class.std::vector.20" = type { %"struct.std::_Vector_base.21" }
%"struct.std::_Vector_base.21" = type { %"struct.std::_Vector_base<gmx::AnalysisDataPointSetInfo, std::allocator<gmx::AnalysisDataPointSetInfo>>::_Vector_impl" }
%"struct.std::_Vector_base<gmx::AnalysisDataPointSetInfo, std::allocator<gmx::AnalysisDataPointSetInfo>>::_Vector_impl" = type { %"struct.std::_Vector_base<gmx::AnalysisDataPointSetInfo, std::allocator<gmx::AnalysisDataPointSetInfo>>::_Vector_impl_data" }
%"struct.std::_Vector_base<gmx::AnalysisDataPointSetInfo, std::allocator<gmx::AnalysisDataPointSetInfo>>::_Vector_impl_data" = type { ptr, ptr, ptr }
%"class.std::unique_ptr.25" = type { %"struct.std::__uniq_ptr_data.26" }
%"struct.std::__uniq_ptr_data.26" = type { %"class.std::__uniq_ptr_impl.27" }
%"class.std::__uniq_ptr_impl.27" = type { %"class.std::tuple.28" }
%"class.std::tuple.28" = type { %"struct.std::_Tuple_impl.29" }
%"struct.std::_Tuple_impl.29" = type { %"struct.std::_Head_base.32" }
%"struct.std::_Head_base.32" = type { ptr }

; Function Attrs: mustprogress nounwind uwtable
define linkonce_odr noundef nonnull align 8 dereferenceable(8) ptr @_ZNSt10_Head_baseILm0EPN3gmx8internal28AnalysisDataStorageFrameDataELb0EE7_M_headERKS4_(ptr noundef nonnull align 8 dereferenceable(8) %0) #0 comdat align 2 {
  %2 = alloca ptr, align 8
  store ptr %0, ptr %2, align 8
  %3 = load ptr, ptr %2, align 8
  %4 = getelementptr inbounds %"struct.std::_Head_base.14", ptr %3, i32 0, i32 0
  ret ptr %4
}

; Function Attrs: mustprogress nounwind uwtable
define linkonce_odr noundef nonnull align 8 dereferenceable(8) ptr @_ZNSt11_Tuple_implILm0EJPN3gmx8internal28AnalysisDataStorageFrameDataESt14default_deleteIS2_EEE7_M_headERKS6_(ptr noundef nonnull align 8 dereferenceable(8) %0) #0 comdat align 2 {
  %2 = alloca ptr, align 8
  store ptr %0, ptr %2, align 8
  %3 = load ptr, ptr %2, align 8
  %4 = call noundef nonnull align 8 dereferenceable(8) ptr @_ZNSt10_Head_baseILm0EPN3gmx8internal28AnalysisDataStorageFrameDataELb0EE7_M_headERKS4_(ptr noundef nonnull align 8 dereferenceable(8) %3) #12
  ret ptr %4
}

; Function Attrs: mustprogress nounwind uwtable
define linkonce_odr noundef nonnull align 8 dereferenceable(8) ptr @_ZSt12__get_helperILm0EPN3gmx8internal28AnalysisDataStorageFrameDataEJSt14default_deleteIS2_EEERKT0_RKSt11_Tuple_implIXT_EJS6_DpT1_EE(ptr noundef nonnull align 8 dereferenceable(8) %0) #0 comdat {
  %2 = alloca ptr, align 8
  store ptr %0, ptr %2, align 8
  %3 = load ptr, ptr %2, align 8
  %4 = call noundef nonnull align 8 dereferenceable(8) ptr @_ZNSt11_Tuple_implILm0EJPN3gmx8internal28AnalysisDataStorageFrameDataESt14default_deleteIS2_EEE7_M_headERKS6_(ptr noundef nonnull align 8 dereferenceable(8) %3) #12
  ret ptr %4
}

; Function Attrs: mustprogress nounwind uwtable
define linkonce_odr noundef nonnull align 8 dereferenceable(8) ptr @_ZSt3getILm0EJPN3gmx8internal28AnalysisDataStorageFrameDataESt14default_deleteIS2_EEERKNSt13tuple_elementIXT_ESt5tupleIJDpT0_EEE4typeERKSA_(ptr noundef nonnull align 8 dereferenceable(8) %0) #0 comdat {
  %2 = alloca ptr, align 8
  store ptr %0, ptr %2, align 8
  %3 = load ptr, ptr %2, align 8
  %4 = call noundef nonnull align 8 dereferenceable(8) ptr @_ZSt12__get_helperILm0EPN3gmx8internal28AnalysisDataStorageFrameDataEJSt14default_deleteIS2_EEERKT0_RKSt11_Tuple_implIXT_EJS6_DpT1_EE(ptr noundef nonnull align 8 dereferenceable(8) %3) #12
  ret ptr %4
}

; Function Attrs: mustprogress nounwind uwtable
define linkonce_odr noundef ptr @_ZNKSt15__uniq_ptr_implIN3gmx8internal28AnalysisDataStorageFrameDataESt14default_deleteIS2_EE6_M_ptrEv(ptr noundef nonnull align 8 dereferenceable(8) %0) #0 comdat align 2 {
  %2 = alloca ptr, align 8
  store ptr %0, ptr %2, align 8
  %3 = load ptr, ptr %2, align 8
  %4 = getelementptr inbounds %"class.std::__uniq_ptr_impl.9", ptr %3, i32 0, i32 0
  %5 = call noundef nonnull align 8 dereferenceable(8) ptr @_ZSt3getILm0EJPN3gmx8internal28AnalysisDataStorageFrameDataESt14default_deleteIS2_EEERKNSt13tuple_elementIXT_ESt5tupleIJDpT0_EEE4typeERKSA_(ptr noundef nonnull align 8 dereferenceable(8) %4) #12
  %6 = load ptr, ptr %5, align 8
  ret ptr %6
}

; Function Attrs: mustprogress nounwind uwtable
define linkonce_odr noundef i32 @_ZNK3gmx23AnalysisDataFrameHeader5indexEv(ptr noundef nonnull align 4 dereferenceable(12) %0) #0 comdat align 2 {
  %2 = alloca ptr, align 8
  store ptr %0, ptr %2, align 8
  %3 = load ptr, ptr %2, align 8
  %4 = getelementptr inbounds %"class.gmx::AnalysisDataFrameHeader", ptr %3, i32 0, i32 0
  %5 = load i32, ptr %4, align 4
  ret i32 %5
}

; Function Attrs: mustprogress nounwind uwtable
define linkonce_odr noundef nonnull align 4 dereferenceable(12) ptr @_ZNK3gmx8internal28AnalysisDataStorageFrameData6headerEv(ptr noundef nonnull align 8 dereferenceable(84) %0) #0 comdat align 2 {
  %2 = alloca ptr, align 8
  store ptr %0, ptr %2, align 8
  %3 = load ptr, ptr %2, align 8
  %4 = getelementptr inbounds %"class.gmx::internal::AnalysisDataStorageFrameData", ptr %3, i32 0, i32 1
  ret ptr %4
}

; Function Attrs: mustprogress nounwind uwtable
define linkonce_odr noundef ptr @_ZNKSt10unique_ptrIN3gmx8internal28AnalysisDataStorageFrameDataESt14default_deleteIS2_EE3getEv(ptr noundef nonnull align 8 dereferenceable(8) %0) #0 comdat align 2 {
  %2 = alloca ptr, align 8
  store ptr %0, ptr %2, align 8
  %3 = load ptr, ptr %2, align 8
  %4 = getelementptr inbounds %"class.std::unique_ptr.7", ptr %3, i32 0, i32 0
  %5 = call noundef ptr @_ZNKSt15__uniq_ptr_implIN3gmx8internal28AnalysisDataStorageFrameDataESt14default_deleteIS2_EE6_M_ptrEv(ptr noundef nonnull align 8 dereferenceable(8) %4) #12
  ret ptr %5
}

; Function Attrs: mustprogress uwtable
define linkonce_odr noundef i32 @_ZNK3gmx8internal28AnalysisDataStorageFrameData10frameIndexEv(ptr noundef nonnull align 8 dereferenceable(84) %0) #1 comdat align 2 {
  %2 = alloca ptr, align 8
  store ptr %0, ptr %2, align 8
  %3 = load ptr, ptr %2, align 8
  %4 = call noundef nonnull align 4 dereferenceable(12) ptr @_ZNK3gmx8internal28AnalysisDataStorageFrameData6headerEv(ptr noundef nonnull align 8 dereferenceable(84) %3)
  %5 = call noundef i32 @_ZNK3gmx23AnalysisDataFrameHeader5indexEv(ptr noundef nonnull align 4 dereferenceable(12) %4)
  ret i32 %5
}

; Function Attrs: mustprogress nounwind uwtable
define linkonce_odr noundef ptr @_ZNKSt10unique_ptrIN3gmx8internal28AnalysisDataStorageFrameDataESt14default_deleteIS2_EEptEv(ptr noundef nonnull align 8 dereferenceable(8) %0) #0 comdat align 2 {
  %2 = alloca ptr, align 8
  store ptr %0, ptr %2, align 8
  %3 = load ptr, ptr %2, align 8
  %4 = call noundef ptr @_ZNKSt10unique_ptrIN3gmx8internal28AnalysisDataStorageFrameDataESt14default_deleteIS2_EE3getEv(ptr noundef nonnull align 8 dereferenceable(8) %3) #12
  ret ptr %4
}

; Function Attrs: mustprogress nounwind uwtable
define linkonce_odr noundef nonnull align 8 dereferenceable(8) ptr @_ZNKSt6vectorISt10unique_ptrIN3gmx8internal28AnalysisDataStorageFrameDataESt14default_deleteIS3_EESaIS6_EEixEm(ptr noundef nonnull align 8 dereferenceable(24) %0, i64 noundef %1) #0 comdat align 2 {
  %3 = alloca ptr, align 8
  %4 = alloca i64, align 8
  store ptr %0, ptr %3, align 8
  store i64 %1, ptr %4, align 8
  %5 = load ptr, ptr %3, align 8
  %6 = getelementptr inbounds %"struct.std::_Vector_base", ptr %5, i32 0, i32 0
  %7 = getelementptr inbounds %"struct.std::_Vector_base<std::unique_ptr<gmx::internal::AnalysisDataStorageFrameData>, std::allocator<std::unique_ptr<gmx::internal::AnalysisDataStorageFrameData>>>::_Vector_impl_data", ptr %6, i32 0, i32 0
  %8 = load ptr, ptr %7, align 8
  %9 = load i64, ptr %4, align 8
  %10 = getelementptr inbounds %"class.std::unique_ptr.7", ptr %8, i64 %9
  ret ptr %10
}

; Function Attrs: mustprogress uwtable
define noundef i32 @_ZNK3gmx8internal23AnalysisDataStorageImpl16firstStoredIndexEv(ptr noundef nonnull align 8 dereferenceable(92) %0) #1 align 2 {
  %2 = alloca ptr, align 8
  store ptr %0, ptr %2, align 8
  %3 = load ptr, ptr %2, align 8
  %4 = getelementptr inbounds %"class.gmx::internal::AnalysisDataStorageImpl", ptr %3, i32 0, i32 4
  %5 = getelementptr inbounds %"class.gmx::internal::AnalysisDataStorageImpl", ptr %3, i32 0, i32 5
  %6 = load i64, ptr %5, align 8
  %7 = call noundef nonnull align 8 dereferenceable(8) ptr @_ZNKSt6vectorISt10unique_ptrIN3gmx8internal28AnalysisDataStorageFrameDataESt14default_deleteIS3_EESaIS6_EEixEm(ptr noundef nonnull align 8 dereferenceable(24) %4, i64 noundef %6) #12
  %8 = call noundef ptr @_ZNKSt10unique_ptrIN3gmx8internal28AnalysisDataStorageFrameDataESt14default_deleteIS2_EEptEv(ptr noundef nonnull align 8 dereferenceable(8) %7) #12
  %9 = call noundef i32 @_ZNK3gmx8internal28AnalysisDataStorageFrameData10frameIndexEv(ptr noundef nonnull align 8 dereferenceable(84) %8)
  ret i32 %9
}